Certificate:
    Data:
        Version: 3 (0x2)
        Serial Number:
            22:22:aa:18:07:30:aa:06:aa:49:62:aa:44:92:85
        Signature Algorithm: sha1WithRSAEncryption
        Issuer: C=US, O=Apple Inc., OU=Apple Certification Authority, CN=Apple iPod Accessories Certification Authority
        Validity
            Not Before: Jul 30 23:15:15 2018 GMT
            Not After : Feb 14 22:18:08 2022 GMT
        Subject: C=US, O=Apple Inc., OU=Apple iPod Accessories, CN=IPA_2222AA180730AA06AA4962AA449285
        Subject Public Key Info:
            Public Key Algorithm: rsaEncryption
                Public-Key: (1024 bit)
                Modulus:
                    00:b7:f6:99:e1:e1:3c:33:05:fc:b8:e2:31:68:ff:
                    1a:da:01:7d:99:da:53:a1:2c:77:ef:df:2f:1b:ee:
                    8e:30:59:88:e1:7d:e3:68:e5:1f:5f:59:0a:20:60:
                    21:66:73:16:62:cc:a2:32:f6:86:2d:26:a1:60:72:
                    e5:87:2a:6e:6d:24:5d:b1:ef:8d:df:43:8b:e9:85:
                    cd:18:bb:6e:d2:45:dd:a1:73:9c:ab:0e:e2:db:f6:
                    72:81:8c:2a:04:23:d0:ef:f7:b2:5a:39:10:48:2e:
                    d7:15:29:25:6c:f7:68:b6:d0:61:96:e0:e3:b6:7b:
                    b5:83:51:f9:de:ae:78:2e:53
                Exponent: 65537 (0x10001)
        X509v3 extensions:
            X509v3 Basic Constraints: critical
                CA:FALSE
            X509v3 Authority Key Identifier: 
                FF:4B:1A:43:9A:F5:19:96:AB:18:00:2B:61:C9:EE:40:9D:8E:C7:04
            X509v3 Subject Key Identifier: 
                08:F7:15:84:9E:F5:5F:4C:15:D8:95:83:74:B5:6F:A4:56:F6:87:71
            X509v3 Key Usage: critical
                Digital Signature, Key Encipherment, Data Encipherment, Key Agreement
    Signature Algorithm: sha1WithRSAEncryption
    Signature Value:
        7d:78:7d:da:7a:af:34:40:9d:d8:af:22:b3:3b:e4:30:82:ba:
        52:b3:9f:7c:18:b1:e0:e6:55:66:77:3b:9f:d2:a9:e7:fe:d6:
        ea:e5:23:e1:4c:2d:b6:a3:0a:ab:cc:5e:ad:25:b6:6a:07:e6:
        69:b5:ca:19:7f:3e:02:00:38:92:b7:12:19:23:c6:a1:e2:f2:
        4d:f5:32:48:07:fa:9f:95:83:3e:d4:a1:85:bb:29:ec:cb:de:
        2a:ee:91:3b:0a:30:a7:54:1c:fe:1e:47:69:86:21:8f:a5:3c:
        19:c1:89:33:cd:e3:a6:6c:0f:a1:01:c9:f4:a2:93:f0:b8:bc:
        95:65:82:b1:c5:3b:1e:9f:31:a2:2a:e0:01:15:c9:ad:45:52:
        5f:c5:29:5a:15:62:8c:1b:63:c0:52:1d:93:64:df:79:ac:41:
        bb:ca:08:72:19:b0:df:73:8a:8d:ab:ee:3a:36:78:6c:31:5f:
        dc:bf:af:6e:7b:a9:ea:d6:06:6d:a7:d6:9a:f2:d0:9d:65:8d:
        8a:a7:e8:fe:b1:61:9b:43:f2:e4:e7:84:cb:74:8a:aa:54:22:
        92:88:53:85:ab:e5:46:f8:98:79:32:2f:a2:6d:e1:75:88:ca:
        a2:59:77:cd:c3:23:c8:4d:be:c8:24:2e:52:1b:bb:48:c6:ec:
        35:7a:9c:fa
-----BEGIN CERTIFICATE-----
MIIDWTCCAkGgAwIBAgIPIiKqGAcwqgaqSWKqRJKFMA0GCSqGSIb3DQEBBQUAMIGD
MQswCQYDVQQGEwJVUzETMBEGA1UEChMKQXBwbGUgSW5jLjEmMCQGA1UECxMdQXBw
bGUgQ2VydGlmaWNhdGlvbiBBdXRob3JpdHkxNzA1BgNVBAMTLkFwcGxlIGlQb2Qg
QWNjZXNzb3JpZXMgQ2VydGlmaWNhdGlvbiBBdXRob3JpdHkwHhcNMTgwNzMwMjMx
NTE1WhcNMjIwMjE0MjIxODA4WjBwMQswCQYDVQQGEwJVUzETMBEGA1UECgwKQXBw
bGUgSW5jLjEfMB0GA1UECwwWQXBwbGUgaVBvZCBBY2Nlc3NvcmllczErMCkGA1UE
AwwiSVBBXzIyMjJBQTE4MDczMEFBMDZBQTQ5NjJBQTQ0OTI4NTCBnzANBgkqhkiG
9w0BAQEFAAOBjQAwgYkCgYEAt/aZ4eE8MwX8uOIxaP8a2gF9mdpToSx3798vG+6O
MFmI4X3jaOUfX1kKIGAhZnMWYsyiMvaGLSahYHLlhypubSRdse+N30OL6YXNGLtu
0kXdoXOcqw7i2/ZygYwqBCPQ7/eyWjkQSC7XFSklbPdottBhluDjtnu1g1H53q54
LlMCAwEAAaNgMF4wDAYDVR0TAQH/BAIwADAfBgNVHSMEGDAWgBT/SxpDmvUZlqsY
ACthye5AnY7HBDAdBgNVHQ4EFgQUCPcVhJ71X0wV2JWDdLVvpFb2h3EwDgYDVR0P
AQH/BAQDAgO4MA0GCSqGSIb3DQEBBQUAA4IBAQB9eH3aeq80QJ3YryKzO+QwgrpS
s598GLHg5lVmdzuf0qnn/tbq5SPhTC22owqrzF6tJbZqB+ZptcoZfz4CADiStxIZ
I8ah4vJN9TJIB/qflYM+1KGFuynsy94q7pE7CjCnVBz+HkdphiGPpTwZwYkzzeOm
bA+hAcn0opPwuLyVZYKxxTsenzGiKuABFcmtRVJfxSlaFWKMG2PAUh2TZN95rEG7
yghyGbDfc4qNq+46NnhsMV/cv69ue6nq1gZtp9aa8tCdZY2Kp+j+sWGbQ/Lk54TL
dIqqVCKSiFOFq+VG+Jh5Mi+ibeF1iMqiWXfNwyPITb7IJC5SG7tIxuw1epz6
-----END CERTIFICATE-----

